(dp0
S'METTS MARK'
p1
(dp2
S'to_messages'
p3
I807
sS'deferral_payments'
p4
I0
sS'expenses'
p5
I94299
sS'poi'
p6
I00
sS'deferred_income'
p7
I0
sS'email_address'
p8
S'mark.metts@enron.com'
p9
sS'long_term_incentive'
p10
I0
sS'fraction_from_poi'
p11
F0.04708798017348203
sS'poi_ratio'
p12
F0.04665071770334928
sS'restricted_stock_deferred'
p13
I0
sS'shared_receipt_with_poi'
p14
I702
sS'loan_advances'
p15
I0
sS'from_messages'
p16
I29
sS'other'
p17
I1740
sS'director_fees'
p18
I0
sS'bonus'
p19
I600000
sS'total_stock_value'
p20
I585062
sS'from_poi_to_this_person'
p21
I38
sS'from_this_person_to_poi'
p22
I1
sS'restricted_stock'
p23
I585062
sS'salary'
p24
I365788
sS'total_payments'
p25
I1061827
sS'fraction_to_poi'
p26
F0.034482758620689655
sS'exercised_stock_options'
p27
I0
sS'savings'
p28
F271489.0
ssS'BAXTER JOHN C'
p29
(dp30
g3
I0
sg4
I1295738
sg5
I11200
sg6
I00
sg7
I-1386055
sg8
I0
sg10
I1586055
sg11
I0
sg12
I0
sg13
I0
sg14
I0
sg15
I0
sg16
I0
sg17
I2660303
sg18
I0
sg19
I1200000
sg20
I10623258
sg21
I0
sg22
I0
sg23
I3942714
sg24
I267102
sg25
I5634343
sg26
I0
sg27
I6680544
sg28
F255902.0
ssS'ELLIOTT STEVEN'
p31
(dp32
g3
I0
sg4
I0
sg5
I78552
sg6
I00
sg7
I-400729
sg8
S'steven.elliott@enron.com'
p33
sg10
I0
sg11
I0
sg12
I0
sg13
I0
sg14
I0
sg15
I0
sg16
I0
sg17
I12961
sg18
I0
sg19
I350000
sg20
I6678735
sg21
I0
sg22
I0
sg23
I1788391
sg24
I170941
sg25
I211725
sg26
I0
sg27
I4890344
sg28
F92389.0
ssS'CORDES WILLIAM R'
p34
(dp35
g3
I764
sg4
I0
sg5
I0
sg6
I00
sg7
I0
sg8
S'bill.cordes@enron.com'
p36
sg10
I0
sg11
F0.013089005235602094
sg12
F0.01288659793814433
sg13
I0
sg14
I58
sg15
I0
sg16
I12
sg17
I0
sg18
I0
sg19
I0
sg20
I1038185
sg21
I10
sg22
I0
sg23
I386335
sg24
I0
sg25
I0
sg26
F0.0
sg27
I651850
sg28
I0
ssS'HANNON KEVIN P'
p37
(dp38
g3
I1045
sg4
I0
sg5
I34039
sg6
I01
sg7
I-3117011
sg8
S'kevin.hannon@enron.com'
p39
sg10
I1617011
sg11
F0.03062200956937799
sg12
F0.04921077065923862
sg13
I0
sg14
I1035
sg15
I0
sg16
I32
sg17
I11350
sg18
I0
sg19
I1500000
sg20
I6391065
sg21
I32
sg22
I21
sg23
I853064
sg24
I243293
sg25
I288682
sg26
F0.65625
sg27
I5538001
sg28
F209254.0
ssS'MORDAUNT KRISTINA M'
p40
(dp41
g3
I0
sg4
I0
sg5
I35018
sg6
I00
sg7
I0
sg8
S'kristina.mordaunt@enron.com'
p42
sg10
I0
sg11
I0
sg12
I0
sg13
I0
sg14
I0
sg15
I0
sg16
I0
sg17
I1411
sg18
I0
sg19
I325000
sg20
I208510
sg21
I0
sg22
I0
sg23
I208510
sg24
I267093
sg25
I628522
sg26
I0
sg27
I0
sg28
F232075.0
ssS'MEYER ROCKFORD G'
p43
(dp44
g3
I232
sg4
I1848227
sg5
I0
sg6
I00
sg7
I0
sg8
S'rockford.meyer@enron.com'
p45
sg10
I0
sg11
F0.0
sg12
F0.0
sg13
I0
sg14
I22
sg15
I0
sg16
I28
sg17
I0
sg18
I0
sg19
I0
sg20
I955873
sg21
I0
sg22
I0
sg23
I462384
sg24
I0
sg25
I1848227
sg26
F0.0
sg27
I493489
sg28
I0
ssS'MCMAHON JEFFREY'
p46
(dp47
g3
I2355
sg4
I0
sg5
I137108
sg6
I00
sg7
I0
sg8
S'jeffrey.mcmahon@enron.com'
p48
sg10
I694862
sg11
F0.024628450106157114
sg12
F0.03495630461922597
sg13
I0
sg14
I2228
sg15
I0
sg16
I48
sg17
I297353
sg18
I0
sg19
I2600000
sg20
I1662855
sg21
I58
sg22
I26
sg23
I558801
sg24
I370448
sg25
I4099771
sg26
F0.5416666666666666
sg27
I1104054
sg28
F233340.0
ssS'HORTON STANLEY C'
p49
(dp50
g3
I2350
sg4
I3131860
sg5
I0
sg6
I00
sg7
I0
sg8
S'stanley.horton@enron.com'
p51
sg10
I0
sg11
F0.01872340425531915
sg12
F0.017236342389716622
sg13
I0
sg14
I1074
sg15
I0
sg16
I1073
sg17
I0
sg18
I0
sg19
I0
sg20
I7256648
sg21
I44
sg22
I15
sg23
I2046079
sg24
I0
sg25
I3131860
sg26
F0.013979496738117428
sg27
I5210569
sg28
I0
ssS'PIPER GREGORY F'
p52
(dp53
g3
I1238
sg4
I1130036
sg5
I43057
sg6
I00
sg7
I-33333
sg8
S'greg.piper@enron.com'
p54
sg10
I0
sg11
F0.049273021001615507
sg12
F0.07465753424657534
sg13
I-409554
sg14
I742
sg15
I0
sg16
I222
sg17
I778
sg18
I0
sg19
I400000
sg20
I880290
sg21
I61
sg22
I48
sg23
I409554
sg24
I197091
sg25
I1737629
sg26
F0.21621621621621623
sg27
I880290
sg28
F154034.0
ssS'HUMPHREY GENE E'
p55
(dp56
g3
I128
sg4
I2964506
sg5
I4994
sg6
I00
sg7
I0
sg8
S'gene.humphrey@enron.com'
p57
sg10
I0
sg11
F0.078125
sg12
F0.18620689655172415
sg13
I0
sg14
I119
sg15
I0
sg16
I17
sg17
I0
sg18
I0
sg19
I0
sg20
I2282768
sg21
I10
sg22
I17
sg23
I0
sg24
I130724
sg25
I3100224
sg26
F1.0
sg27
I2282768
sg28
F125730.0
ssS'UMANOFF ADAM S'
p58
(dp59
g3
I111
sg4
I0
sg5
I53122
sg6
I00
sg7
I0
sg8
S'adam.umanoff@enron.com'
p60
sg10
I0
sg11
F0.10810810810810811
sg12
F0.09302325581395349
sg13
I0
sg14
I41
sg15
I0
sg16
I18
sg17
I0
sg18
I0
sg19
I788750
sg20
I0
sg21
I12
sg22
I0
sg23
I0
sg24
I288589
sg25
I1130461
sg26
F0.0
sg27
I0
sg28
F235467.0
ssS'BLACHMAN JEREMY M'
p61
(dp62
g3
I2475
sg4
I0
sg5
I84208
sg6
I00
sg7
I0
sg8
S'jeremy.blachman@enron.com'
p63
sg10
I831809
sg11
F0.010101010101010102
sg12
F0.010847730012053034
sg13
I0
sg14
I2326
sg15
I0
sg16
I14
sg17
I272
sg18
I0
sg19
I850000
sg20
I954354
sg21
I25
sg22
I2
sg23
I189041
sg24
I248546
sg25
I2014835
sg26
F0.14285714285714285
sg27
I765313
sg28
F164338.0
ssS'SUNDE MARTIN'
p64
(dp65
g3
I2647
sg4
I0
sg5
I0
sg6
I00
sg7
I0
sg8
S'marty.sunde@enron.com'
p66
sg10
I476451
sg11
F0.013978088401964487
sg12
F0.0186219739292365
sg13
I0
sg14
I2565
sg15
I0
sg16
I38
sg17
I111122
sg18
I0
sg19
I700000
sg20
I698920
sg21
I37
sg22
I13
sg23
I698920
sg24
I257486
sg25
I1545059
sg26
F0.34210526315789475
sg27
I0
sg28
I0
ssS'GIBBS DANA R'
p67
(dp68
g3
I169
sg4
I504610
sg5
I0
sg6
I00
sg7
I0
sg8
S'dana.gibbs@enron.com'
p69
sg10
I461912
sg11
F0.0
sg12
F0.0
sg13
I0
sg14
I23
sg15
I0
sg16
I12
sg17
I0
sg18
I0
sg19
I0
sg20
I2218275
sg21
I0
sg22
I0
sg23
I0
sg24
I0
sg25
I966522
sg26
F0.0
sg27
I2218275
sg28
I0
ssS'LOWRY CHARLES P'
p70
(dp71
g3
I0
sg4
I0
sg5
I0
sg6
I00
sg7
I0
sg8
I0
sg10
I0
sg11
I0
sg12
I0
sg13
I-153686
sg14
I0
sg15
I0
sg16
I0
sg17
I0
sg18
I0
sg19
I0
sg20
I372205
sg21
I0
sg22
I0
sg23
I153686
sg24
I0
sg25
I0
sg26
I0
sg27
I372205
sg28
I0
ssS'COLWELL WESLEY'
p72
(dp73
g3
I1758
sg4
I27610
sg5
I16514
sg6
I01
sg7
I-144062
sg8
S'wes.colwell@enron.com'
p74
sg10
I0
sg11
F0.13651877133105803
sg12
F0.13959955506117908
sg13
I0
sg14
I1132
sg15
I0
sg16
I40
sg17
I101740
sg18
I0
sg19
I1200000
sg20
I698242
sg21
I240
sg22
I11
sg23
I698242
sg24
I288542
sg25
I1490344
sg26
F0.275
sg27
I0
sg28
F272028.0
ssS'MULLER MARK S'
p75
(dp76
g3
I136
sg4
I842924
sg5
I0
sg6
I00
sg7
I-719000
sg8
S's..muller@enron.com'
p77
sg10
I1725545
sg11
F0.08823529411764706
sg12
F0.07894736842105263
sg13
I0
sg14
I114
sg15
I0
sg16
I16
sg17
I947
sg18
I0
sg19
I1100000
sg20
I1416848
sg21
I12
sg22
I0
sg23
I360528
sg24
I251654
sg25
I3202070
sg26
F0.0
sg27
I1056320
sg28
I0
ssS'JACKSON CHARLENE R'
p78
(dp79
g3
I258
sg4
I0
sg5
I10181
sg6
I00
sg7
I0
sg8
S'charlene.jackson@enron.com'
p80
sg10
I0
sg11
F0.09689922480620156
sg12
F0.14012738853503184
sg13
I0
sg14
I117
sg15
I0
sg16
I56
sg17
I2435
sg18
I0
sg19
I250000
sg20
I725735
sg21
I25
sg22
I19
sg23
I540672
sg24
I288558
sg25
I551174
sg26
F0.3392857142857143
sg27
I185063
sg28
F278377.0
ssS'WESTFAHL RICHARD K'
p81
(dp82
g3
I0
sg4
I0
sg5
I51870
sg6
I00
sg7
I-10800
sg8
S'dick.westfahl@enron.com'
p83
sg10
I256191
sg11
I0
sg12
I0
sg13
I0
sg14
I0
sg15
I0
sg16
I0
sg17
I401130
sg18
I0
sg19
I0
sg20
I384930
sg21
I0
sg22
I0
sg23
I384930
sg24
I63744
sg25
I762135
sg26
I0
sg27
I0
sg28
F11874.0
ssS'WALTERS GARETH W'
p84
(dp85
g3
I0
sg4
I53625
sg5
I33785
sg6
I00
sg7
I0
sg8
I0
sg10
I0
sg11
I0
sg12
I0
sg13
I0
sg14
I0
sg15
I0
sg16
I0
sg17
I0
sg18
I0
sg19
I0
sg20
I1030329
sg21
I0
sg22
I0
sg23
I0
sg24
I0
sg25
I87410
sg26
I0
sg27
I1030329
sg28
I0
ssS'WALLS JR ROBERT H'
p86
(dp87
g3
I671
sg4
I0
sg5
I50936
sg6
I00
sg7
I0
sg8
S'rob.walls@enron.com'
p88
sg10
I540751
sg11
F0.02533532041728763
sg12
F0.0208078335373317
sg13
I0
sg14
I215
sg15
I0
sg16
I146
sg17
I2
sg18
I0
sg19
I850000
sg20
I5898997
sg21
I17
sg22
I0
sg23
I1552453
sg24
I357091
sg25
I1798780
sg26
F0.0
sg27
I4346544
sg28
F306155.0
ssS'KITCHEN LOUISE'
p89
(dp90
g3
I8305
sg4
I0
sg5
I5774
sg6
I00
sg7
I0
sg8
S'louise.kitchen@enron.com'
p91
sg10
I0
sg11
F0.030222757375075255
sg12
F0.044353633011063494
sg13
I0
sg14
I3669
sg15
I0
sg16
I1728
sg17
I93925
sg18
I0
sg19
I3100000
sg20
I547143
sg21
I251
sg22
I194
sg23
I466101
sg24
I271442
sg25
I3471141
sg26
F0.11226851851851852
sg27
I81042
sg28
F265668.0
ssS'CHAN RONNIE'
p92
(dp93
g3
I0
sg4
I0
sg5
I0
sg6
I00
sg7
I-98784
sg8
I0
sg10
I0
sg11
I0
sg12
I0
sg13
I-32460
sg14
I0
sg15
I0
sg16
I0
sg17
I0
sg18
I98784
sg19
I0
sg20
I0
sg21
I0
sg22
I0
sg23
I32460
sg24
I0
sg25
I0
sg26
I0
sg27
I0
sg28
I0
ssS'BELFER ROBERT'
p94
(dp95
g3
I0
sg4
I-102500
sg5
I0
sg6
I00
sg7
I0
sg8
I0
sg10
I0
sg11
I0
sg12
I0
sg13
I44093
sg14
I0
sg15
I0
sg16
I0
sg17
I0
sg18
I3285
sg19
I0
sg20
I-44093
sg21
I0
sg22
I0
sg23
I0
sg24
I0
sg25
I102500
sg26
I0
sg27
I3285
sg28
I0
ssS'SHANKMAN JEFFREY A'
p96
(dp97
g3
I3221
sg4
I0
sg5
I178979
sg6
I00
sg7
I0
sg8
S'jeffrey.shankman@enron.com'
p98
sg10
I554422
sg11
F0.029183483390251473
sg12
F0.029989833954591663
sg13
I0
sg14
I1730
sg15
I0
sg16
I2681
sg17
I1191
sg18
I0
sg19
I2000000
sg20
I2072035
sg21
I94
sg22
I83
sg23
I630137
sg24
I304110
sg25
I3038702
sg26
F0.030958597538232
sg27
I1441898
sg28
F125131.0
ssS'WODRASKA JOHN'
p99
(dp100
g3
I0
sg4
I0
sg5
I0
sg6
I00
sg7
I0
sg8
S'john.wodraska@enron.com'
p101
sg10
I0
sg11
I0
sg12
I0
sg13
I0
sg14
I0
sg15
I0
sg16
I0
sg17
I189583
sg18
I0
sg19
I0
sg20
I0
sg21
I0
sg22
I0
sg23
I0
sg24
I0
sg25
I189583
sg26
I0
sg27
I0
sg28
I0
ssS'BERGSIEKER RICHARD P'
p102
(dp103
g3
I383
sg4
I0
sg5
I59175
sg6
I00
sg7
I-485813
sg8
S'rick.bergsieker@enron.com'
p104
sg10
I180250
sg11
F0.010443864229765013
sg12
F0.00904977375565611
sg13
I0
sg14
I233
sg15
I0
sg16
I59
sg17
I427316
sg18
I0
sg19
I250000
sg20
I659249
sg21
I4
sg22
I0
sg23
I659249
sg24
I187922
sg25
I618850
sg26
F0.0
sg27
I0
sg28
F128747.0
ssS'URQUHART JOHN A'
p105
(dp106
g3
I0
sg4
I0
sg5
I228656
sg6
I00
sg7
I-36666
sg8
I0
sg10
I0
sg11
I0
sg12
I0
sg13
I0
sg14
I0
sg15
I0
sg16
I0
sg17
I0
sg18
I36666
sg19
I0
sg20
I0
sg21
I0
sg22
I0
sg23
I0
sg24
I0
sg25
I228656
sg26
I0
sg27
I0
sg28
I0
ssS'BIBI PHILIPPE A'
p107
(dp108
g3
I1607
sg4
I0
sg5
I38559
sg6
I00
sg7
I0
sg8
S'philippe.bibi@enron.com'
p109
sg10
I369721
sg11
F0.01431238332296204
sg12
F0.018822100789313904
sg13
I0
sg14
I1336
sg15
I0
sg16
I40
sg17
I425688
sg18
I0
sg19
I1000000
sg20
I1843816
sg21
I23
sg22
I8
sg23
I378082
sg24
I213625
sg25
I2047593
sg26
F0.2
sg27
I1465734
sg28
F175066.0
ssS'RIEKER PAULA H'
p110
(dp111
g3
I1328
sg4
I214678
sg5
I33271
sg6
I01
sg7
I-100000
sg8
S'paula.rieker@enron.com'
p112
sg10
I0
sg11
F0.02635542168674699
sg12
F0.058865248226950356
sg13
I0
sg14
I1258
sg15
I0
sg16
I82
sg17
I1950
sg18
I0
sg19
I700000
sg20
I1918887
sg21
I35
sg22
I48
sg23
I283649
sg24
I249201
sg25
I1099100
sg26
F0.5853658536585366
sg27
I1635238
sg28
F215930.0
ssS'WHALEY DAVID A'
p113
(dp114
g3
I0
sg4
I0
sg5
I0
sg6
I00
sg7
I0
sg8
I0
sg10
I0
sg11
I0
sg12
I0
sg13
I0
sg14
I0
sg15
I0
sg16
I0
sg17
I0
sg18
I0
sg19
I0
sg20
I98718
sg21
I0
sg22
I0
sg23
I0
sg24
I0
sg25
I0
sg26
I0
sg27
I98718
sg28
I0
ssS'BECK SALLY W'
p115
(dp116
g3
I7315
sg4
I0
sg5
I37172
sg6
I00
sg7
I0
sg8
S'sally.beck@enron.com'
p117
sg10
I0
sg11
F0.01968557758031442
sg12
F0.0454623434551381
sg13
I0
sg14
I2639
sg15
I0
sg16
I4343
sg17
I566
sg18
I0
sg19
I700000
sg20
I126027
sg21
I144
sg22
I386
sg23
I126027
sg24
I231330
sg25
I969068
sg26
F0.08887865530739121
sg27
I0
sg28
F194158.0
ssS'HAUG DAVID L'
p118
(dp119
g3
I573
sg4
I0
sg5
I475
sg6
I00
sg7
I0
sg8
S'david.haug@enron.com'
p120
sg10
I0
sg11
F0.006980802792321117
sg12
F0.018581081081081082
sg13
I0
sg14
I471
sg15
I0
sg16
I19
sg17
I0
sg18
I0
sg19
I0
sg20
I2217299
sg21
I4
sg22
I7
sg23
I2217299
sg24
I0
sg25
I475
sg26
F0.3684210526315789
sg27
I0
sg28
I0
ssS'ECHOLS JOHN B'
p121
(dp122
g3
I0
sg4
I0
sg5
I21530
sg6
I00
sg7
I0
sg8
S'john.echols@enron.com'
p123
sg10
I2234774
sg11
I0
sg12
I0
sg13
I0
sg14
I0
sg15
I0
sg16
I0
sg17
I53775
sg18
I0
sg19
I200000
sg20
I1008941
sg21
I0
sg22
I0
sg23
I407503
sg24
I182245
sg25
I2692324
sg26
I0
sg27
I601438
sg28
F160715.0
ssS'MENDELSOHN JOHN'
p124
(dp125
g3
I0
sg4
I0
sg5
I148
sg6
I00
sg7
I-103750
sg8
I0
sg10
I0
sg11
I0
sg12
I0
sg13
I0
sg14
I0
sg15
I0
sg16
I0
sg17
I0
sg18
I103750
sg19
I0
sg20
I0
sg21
I0
sg22
I0
sg23
I0
sg24
I0
sg25
I148
sg26
I0
sg27
I0
sg28
I0
ssS'HICKERSON GARY J'
p126
(dp127
g3
I1320
sg4
I0
sg5
I98849
sg6
I00
sg7
I0
sg8
S'gary.hickerson@enron.com'
p128
sg10
I69223
sg11
F0.030303030303030304
sg12
F0.030438010393466965
sg13
I0
sg14
I900
sg15
I0
sg16
I27
sg17
I1936
sg18
I0
sg19
I1700000
sg20
I441096
sg21
I40
sg22
I1
sg23
I441096
sg24
I211788
sg25
I2081796
sg26
F0.037037037037037035
sg27
I0
sg28
F112939.0
ssS'CLINE KENNETH W'
p129
(dp130
g3
I0
sg4
I0
sg5
I0
sg6
I00
sg7
I0
sg8
I0
sg10
I0
sg11
I0
sg12
I0
sg13
I-472568
sg14
I0
sg15
I0
sg16
I0
sg17
I0
sg18
I0
sg19
I0
sg20
I189518
sg21
I0
sg22
I0
sg23
I662086
sg24
I0
sg25
I0
sg26
I0
sg27
I0
sg28
I0
ssS'LEWIS RICHARD'
p131
(dp132
g3
I952
sg4
I0
sg5
I0
sg6
I00
sg7
I0
sg8
S'richard.lewis@enron.com'
p133
sg10
I0
sg11
F0.01050420168067227
sg12
F0.010224948875255624
sg13
I0
sg14
I739
sg15
I0
sg16
I26
sg17
I0
sg18
I0
sg19
I0
sg20
I850477
sg21
I10
sg22
I0
sg23
I0
sg24
I0
sg25
I0
sg26
F0.0
sg27
I850477
sg28
I0
ssS'HAYES ROBERT E'
p134
(dp135
g3
I504
sg4
I7961
sg5
I0
sg6
I00
sg7
I0
sg8
S'robert.hayes@enron.com'
p136
sg10
I0
sg11
F0.031746031746031744
sg12
F0.031007751937984496
sg13
I0
sg14
I50
sg15
I0
sg16
I12
sg17
I0
sg18
I0
sg19
I0
sg20
I151418
sg21
I16
sg22
I0
sg23
I151418
sg24
I0
sg25
I7961
sg26
F0.0
sg27
I0
sg28
I0
ssS'MCCARTY DANNY J'
p137
(dp138
g3
I1433
sg4
I0
sg5
I0
sg6
I00
sg7
I0
sg8
S'danny.mccarty@enron.com'
p139
sg10
I0
sg11
F0.017445917655268667
sg12
F0.016383495145631068
sg13
I0
sg14
I508
sg15
I0
sg16
I215
sg17
I0
sg18
I0
sg19
I0
sg20
I758931
sg21
I25
sg22
I2
sg23
I94556
sg24
I0
sg25
I0
sg26
F0.009302325581395349
sg27
I664375
sg28
I0
ssS'KOPPER MICHAEL J'
p140
(dp141
g3
I0
sg4
I0
sg5
I118134
sg6
I01
sg7
I0
sg8
S'michael.kopper@enron.com'
p142
sg10
I602671
sg11
I0
sg12
I0
sg13
I0
sg14
I0
sg15
I0
sg16
I0
sg17
I907502
sg18
I0
sg19
I800000
sg20
I985032
sg21
I0
sg22
I0
sg23
I985032
sg24
I224305
sg25
I2652612
sg26
I0
sg27
I0
sg28
F106171.0
ssS'LEFF DANIEL P'
p143
(dp144
g3
I2822
sg4
I0
sg5
I0
sg6
I00
sg7
I0
sg8
S'dan.leff@enron.com'
p145
sg10
I1387399
sg11
F0.02374202693125443
sg12
F0.028076256499133447
sg13
I0
sg14
I2672
sg15
I0
sg16
I63
sg17
I3083
sg18
I0
sg19
I1000000
sg20
I360528
sg21
I67
sg22
I14
sg23
I360528
sg24
I273746
sg25
I2664228
sg26
F0.2222222222222222
sg27
I0
sg28
I0
ssS'LAVORATO JOHN J'
p146
(dp147
g3
I7259
sg4
I0
sg5
I49537
sg6
I00
sg7
I0
sg8
S'john.lavorato@enron.com'
p148
sg10
I2035380
sg11
F0.07273729163796666
sg12
F0.09538805363673304
sg13
I0
sg14
I3962
sg15
I0
sg16
I2585
sg17
I1552
sg18
I0
sg19
I8000000
sg20
I5167144
sg21
I528
sg22
I411
sg23
I1008149
sg24
I339288
sg25
I10425757
sg26
F0.15899419729206962
sg27
I4158995
sg28
F289751.0
ssS'BERBERIAN DAVID'
p149
(dp150
g3
I0
sg4
I0
sg5
I11892
sg6
I00
sg7
I0
sg8
S'david.berberian@enron.com'
p151
sg10
I0
sg11
I0
sg12
I0
sg13
I0
sg14
I0
sg15
I0
sg16
I0
sg17
I0
sg18
I0
sg19
I0
sg20
I2493616
sg21
I0
sg22
I0
sg23
I869220
sg24
I216582
sg25
I228474
sg26
I0
sg27
I1624396
sg28
F204690.0
ssS'DETMERING TIMOTHY J'
p152
(dp153
g3
I0
sg4
I875307
sg5
I52255
sg6
I00
sg7
I-775241
sg8
S'timothy.detmering@enron.com'
p154
sg10
I415657
sg11
I0
sg12
I0
sg13
I-315068
sg14
I0
sg15
I0
sg16
I0
sg17
I1105
sg18
I0
sg19
I425000
sg20
I2027865
sg21
I0
sg22
I0
sg23
I315068
sg24
I210500
sg25
I1204583
sg26
I0
sg27
I2027865
sg28
F158245.0
ssS'WAKEHAM JOHN'
p155
(dp156
g3
I0
sg4
I0
sg5
I103773
sg6
I00
sg7
I0
sg8
I0
sg10
I0
sg11
I0
sg12
I0
sg13
I0
sg14
I0
sg15
I0
sg16
I0
sg17
I0
sg18
I109298
sg19
I0
sg20
I0
sg21
I0
sg22
I0
sg23
I0
sg24
I0
sg25
I213071
sg26
I0
sg27
I0
sg28
I0
ssS'POWERS WILLIAM'
p157
(dp158
g3
I653
sg4
I0
sg5
I0
sg6
I00
sg7
I-17500
sg8
S'ken.powers@enron.com'
p159
sg10
I0
sg11
F0.0
sg12
F0.0
sg13
I0
sg14
I12
sg15
I0
sg16
I26
sg17
I0
sg18
I17500
sg19
I0
sg20
I0
sg21
I0
sg22
I0
sg23
I0
sg24
I0
sg25
I0
sg26
F0.0
sg27
I0
sg28
I0
ssS'GOLD JOSEPH'
p160
(dp161
g3
I0
sg4
I0
sg5
I0
sg6
I00
sg7
I0
sg8
S'joe.gold@enron.com'
p162
sg10
I304805
sg11
I0
sg12
I0
sg13
I0
sg14
I0
sg15
I0
sg16
I0
sg17
I819288
sg18
I0
sg19
I750000
sg20
I877611
sg21
I0
sg22
I0
sg23
I441096
sg24
I272880
sg25
I2146973
sg26
I0
sg27
I436515
sg28
I0
ssS'BANNANTINE JAMES M'
p163
(dp164
g3
I566
sg4
I0
sg5
I56301
sg6
I00
sg7
I-5104
sg8
S'james.bannantine@enron.com'
p165
sg10
I0
sg11
F0.06890459363957598
sg12
F0.06554621848739496
sg13
I-560222
sg14
I465
sg15
I0
sg16
I29
sg17
I864523
sg18
I0
sg19
I0
sg20
I5243487
sg21
I39
sg22
I0
sg23
I1757552
sg24
I477
sg25
I916197
sg26
F0.0
sg27
I4046157
sg28
F-55824.0
ssS'DUNCAN JOHN H'
p166
(dp167
g3
I0
sg4
I0
sg5
I0
sg6
I00
sg7
I-25000
sg8
I0
sg10
I0
sg11
I0
sg12
I0
sg13
I0
sg14
I0
sg15
I0
sg16
I0
sg17
I0
sg18
I102492
sg19
I0
sg20
I371750
sg21
I0
sg22
I0
sg23
I0
sg24
I0
sg25
I77492
sg26
I0
sg27
I371750
sg28
I0
ssS'SHAPIRO RICHARD S'
p168
(dp169
g3
I15149
sg4
I0
sg5
I137767
sg6
I00
sg7
I0
sg8
S'richard.shapiro@enron.com'
p170
sg10
I0
sg11
F0.0048848108786058485
sg12
F0.00849425568320704
sg13
I0
sg14
I4527
sg15
I0
sg16
I1215
sg17
I705
sg18
I0
sg19
I650000
sg20
I987001
sg21
I74
sg22
I65
sg23
I379164
sg24
I269076
sg25
I1057548
sg26
F0.053497942386831275
sg27
I607837
sg28
F131309.0
ssS'SHERRIFF JOHN R'
p171
(dp172
g3
I3187
sg4
I0
sg5
I0
sg6
I00
sg7
I0
sg8
S'john.sherriff@enron.com'
p173
sg10
I554422
sg11
F0.008785691873235017
sg12
F0.01555352241537054
sg13
I0
sg14
I2103
sg15
I0
sg16
I92
sg17
I1852186
sg18
I0
sg19
I1500000
sg20
I3128982
sg21
I28
sg22
I23
sg23
I1293424
sg24
I428780
sg25
I4335388
sg26
F0.25
sg27
I1835558
sg28
I0
ssS'SHELBY REX'
p174
(dp175
g3
I225
sg4
I0
sg5
I22884
sg6
I01
sg7
I-4167
sg8
S'rex.shelby@enron.com'
p176
sg10
I0
sg11
F0.057777777777777775
sg12
F0.10227272727272728
sg13
I0
sg14
I91
sg15
I0
sg16
I39
sg17
I1573324
sg18
I0
sg19
I200000
sg20
I2493616
sg21
I13
sg22
I14
sg23
I869220
sg24
I211844
sg25
I2003885
sg26
F0.358974358974359
sg27
I1624396
sg28
F188960.0
ssS'LEMAISTRE CHARLES'
p177
(dp178
g3
I0
sg4
I0
sg5
I0
sg6
I00
sg7
I-25000
sg8
I0
sg10
I0
sg11
I0
sg12
I0
sg13
I0
sg14
I0
sg15
I0
sg16
I0
sg17
I0
sg18
I112492
sg19
I0
sg20
I412878
sg21
I0
sg22
I0
sg23
I0
sg24
I0
sg25
I87492
sg26
I0
sg27
I412878
sg28
I0
ssS'DEFFNER JOSEPH M'
p179
(dp180
g3
I714
sg4
I0
sg5
I41626
sg6
I00
sg7
I0
sg8
S'joseph.deffner@enron.com'
p181
sg10
I335349
sg11
F0.16106442577030813
sg12
F0.15101522842639595
sg13
I0
sg14
I552
sg15
I0
sg16
I74
sg17
I25553
sg18
I0
sg19
I600000
sg20
I159211
sg21
I115
sg22
I4
sg23
I141833
sg24
I206121
sg25
I1208649
sg26
F0.05405405405405406
sg27
I17378
sg28
F164495.0
ssS'KISHKILL JOSEPH G'
p182
(dp183
g3
I0
sg4
I0
sg5
I116335
sg6
I00
sg7
I-51042
sg8
S'joe.kishkill@enron.com'
p184
sg10
I0
sg11
I0
sg12
I0
sg13
I0
sg14
I0
sg15
I0
sg16
I0
sg17
I465357
sg18
I0
sg19
I0
sg20
I1034346
sg21
I0
sg22
I0
sg23
I1034346
sg24
I174246
sg25
I704896
sg26
I0
sg27
I0
sg28
F57911.0
ssS'WHALLEY LAWRENCE G'
p185
(dp186
g3
I6019
sg4
I0
sg5
I57838
sg6
I00
sg7
I0
sg8
S'greg.whalley@enron.com'
p187
sg10
I808346
sg11
F0.03090214321315833
sg12
F0.03193916349809886
sg13
I0
sg14
I3920
sg15
I0
sg16
I556
sg17
I301026
sg18
I0
sg19
I3000000
sg20
I6079137
sg21
I186
sg22
I24
sg23
I2796177
sg24
I510364
sg25
I4677574
sg26
F0.04316546762589928
sg27
I3282960
sg28
F452526.0
ssS'MCCONNELL MICHAEL S'
p188
(dp189
g3
I3329
sg4
I0
sg5
I81364
sg6
I00
sg7
I0
sg8
S'mike.mcconnell@enron.com'
p190
sg10
I554422
sg11
F0.02763592670471613
sg12
F0.047109207708779445
sg13
I0
sg14
I2189
sg15
I0
sg16
I2742
sg17
I540
sg18
I0
sg19
I1100000
sg20
I3101279
sg21
I92
sg22
I194
sg23
I1478269
sg24
I365038
sg25
I2101364
sg26
F0.07075127644055434
sg27
I1623010
sg28
F283674.0
ssS'PIRO JIM'
p191
(dp192
g3
I58
sg4
I0
sg5
I0
sg6
I00
sg7
I0
sg8
S'jim.piro@enron.com'
p193
sg10
I0
sg11
F0.0
sg12
F0.013513513513513514
sg13
I0
sg14
I3
sg15
I0
sg16
I16
sg17
I0
sg18
I0
sg19
I0
sg20
I47304
sg21
I0
sg22
I1
sg23
I47304
sg24
I0
sg25
I0
sg26
F0.0625
sg27
I0
sg28
I0
ssS'DELAINEY DAVID W'
p194
(dp195
g3
I3093
sg4
I0
sg5
I86174
sg6
I01
sg7
I0
sg8
S'david.delainey@enron.com'
p196
sg10
I1294981
sg11
F0.02133850630455868
sg12
F0.10954235637779941
sg13
I0
sg14
I2097
sg15
I0
sg16
I3069
sg17
I1661
sg18
I0
sg19
I3000000
sg20
I3614261
sg21
I66
sg22
I609
sg23
I1323148
sg24
I365163
sg25
I4747979
sg26
F0.198435972629521
sg27
I2291113
sg28
F278989.0
ssS'SULLIVAN-SHAKLOVITZ COLLEEN'
p197
(dp198
g3
I0
sg4
I181993
sg5
I0
sg6
I00
sg7
I0
sg8
I0
sg10
I554422
sg11
I0
sg12
I0
sg13
I0
sg14
I0
sg15
I0
sg16
I0
sg17
I162
sg18
I0
sg19
I100000
sg20
I1362375
sg21
I0
sg22
I0
sg23
I0
sg24
I162779
sg25
I999356
sg26
I0
sg27
I1362375
sg28
I0
ssS'WROBEL BRUCE'
p199
(dp200
g3
I0
sg4
I0
sg5
I0
sg6
I00
sg7
I0
sg8
I0
sg10
I0
sg11
I0
sg12
I0
sg13
I0
sg14
I0
sg15
I0
sg16
I0
sg17
I0
sg18
I0
sg19
I0
sg20
I139130
sg21
I0
sg22
I0
sg23
I0
sg24
I0
sg25
I0
sg26
I0
sg27
I139130
sg28
I0
ssS'LINDHOLM TOD A'
p201
(dp202
g3
I0
sg4
I204075
sg5
I57727
sg6
I00
sg7
I0
sg8
S'tod.lindholm@enron.com'
p203
sg10
I175000
sg11
I0
sg12
I0
sg13
I0
sg14
I0
sg15
I0
sg16
I0
sg17
I2630
sg18
I0
sg19
I200000
sg20
I3064208
sg21
I0
sg22
I0
sg23
I514847
sg24
I236457
sg25
I875889
sg26
I0
sg27
I2549361
sg28
F178730.0
ssS'MEYER JEROME J'
p204
(dp205
g3
I0
sg4
I0
sg5
I2151
sg6
I00
sg7
I-38346
sg8
I0
sg10
I0
sg11
I0
sg12
I0
sg13
I0
sg14
I0
sg15
I0
sg16
I0
sg17
I0
sg18
I38346
sg19
I0
sg20
I0
sg21
I0
sg22
I0
sg23
I0
sg24
I0
sg25
I2151
sg26
I0
sg27
I0
sg28
I0
ssS'LAY KENNETH L'
p206
(dp207
g3
I4273
sg4
I202911
sg5
I99832
sg6
I01
sg7
I-300000
sg8
S'kenneth.lay@enron.com'
p208
sg10
I3600000
sg11
F0.028785396676807865
sg12
F0.03225806451612903
sg13
I0
sg14
I2411
sg15
I81525000
sg16
I36
sg17
I10359729
sg18
I0
sg19
I7000000
sg20
I49110078
sg21
I123
sg22
I16
sg23
I14761694
sg24
I1072321
sg25
I103559793
sg26
F0.4444444444444444
sg27
I34348384
sg28
F972489.0
ssS'BUTTS ROBERT H'
p209
(dp210
g3
I0
sg4
I0
sg5
I9410
sg6
I00
sg7
I-75000
sg8
S'bob.butts@enron.com'
p211
sg10
I175000
sg11
I0
sg12
I0
sg13
I0
sg14
I0
sg15
I0
sg16
I0
sg17
I150656
sg18
I0
sg19
I750000
sg20
I417619
sg21
I0
sg22
I0
sg23
I417619
sg24
I261516
sg25
I1271582
sg26
I0
sg27
I0
sg28
F252106.0
ssS'OLSON CINDY K'
p212
(dp213
g3
I1184
sg4
I77716
sg5
I63791
sg6
I00
sg7
I0
sg8
S'cindy.olson@enron.com'
p214
sg10
I100000
sg11
F0.016891891891891893
sg12
F0.02831715210355987
sg13
I0
sg14
I856
sg15
I0
sg16
I52
sg17
I972
sg18
I0
sg19
I750000
sg20
I2606763
sg21
I20
sg22
I15
sg23
I969729
sg24
I329078
sg25
I1321557
sg26
F0.28846153846153844
sg27
I1637034
sg28
F265287.0
ssS'MCDONALD REBECCA'
p215
(dp216
g3
I894
sg4
I0
sg5
I0
sg6
I00
sg7
I0
sg8
S'rebecca.mcdonald@enron.com'
p217
sg10
I0
sg11
F0.06040268456375839
sg12
F0.06063947078280044
sg13
I0
sg14
I720
sg15
I0
sg16
I13
sg17
I0
sg18
I0
sg19
I0
sg20
I1691366
sg21
I54
sg22
I1
sg23
I934065
sg24
I0
sg25
I0
sg26
F0.07692307692307693
sg27
I757301
sg28
I0
ssS'CUMBERLAND MICHAEL S'
p218
(dp219
g3
I0
sg4
I0
sg5
I22344
sg6
I00
sg7
I0
sg8
I0
sg10
I275000
sg11
I0
sg12
I0
sg13
I0
sg14
I0
sg15
I0
sg16
I0
sg17
I713
sg18
I0
sg19
I325000
sg20
I207940
sg21
I0
sg22
I0
sg23
I207940
sg24
I184899
sg25
I807956
sg26
I0
sg27
I0
sg28
F162555.0
ssS'GAHN ROBERT S'
p220
(dp221
g3
I0
sg4
I73122
sg5
I50080
sg6
I00
sg7
I-1042
sg8
I0
sg10
I0
sg11
I0
sg12
I0
sg13
I0
sg14
I0
sg15
I0
sg16
I0
sg17
I76547
sg18
I0
sg19
I509870
sg20
I318607
sg21
I0
sg22
I0
sg23
I235370
sg24
I192008
sg25
I900585
sg26
I0
sg27
I83237
sg28
F141928.0
ssS'MCCLELLAN GEORGE'
p222
(dp223
g3
I1744
sg4
I0
sg5
I228763
sg6
I00
sg7
I-125000
sg8
S'george.mcclellan@enron.com'
p224
sg10
I0
sg11
F0.02981651376146789
sg12
F0.029001673173452314
sg13
I0
sg14
I1469
sg15
I0
sg16
I49
sg17
I51587
sg18
I0
sg19
I900000
sg20
I947861
sg21
I52
sg22
I0
sg23
I441096
sg24
I263413
sg25
I1318763
sg26
F0.0
sg27
I506765
sg28
F34650.0
ssS'HERMANN ROBERT J'
p225
(dp226
g3
I0
sg4
I0
sg5
I48357
sg6
I00
sg7
I-280000
sg8
S'robert.hermann@enron.com'
p227
sg10
I150000
sg11
I0
sg12
I0
sg13
I0
sg14
I0
sg15
I0
sg16
I0
sg17
I416441
sg18
I0
sg19
I700000
sg20
I668132
sg21
I0
sg22
I0
sg23
I480632
sg24
I262663
sg25
I1297461
sg26
I0
sg27
I187500
sg28
F214306.0
ssS'SCRIMSHAW MATTHEW'
p228
(dp229
g3
I0
sg4
I0
sg5
I0
sg6
I00
sg7
I0
sg8
S'matthew.scrimshaw@enron.com'
p230
sg10
I0
sg11
I0
sg12
I0
sg13
I0
sg14
I0
sg15
I0
sg16
I0
sg17
I0
sg18
I0
sg19
I0
sg20
I759557
sg21
I0
sg22
I0
sg23
I0
sg24
I0
sg25
I0
sg26
I0
sg27
I759557
sg28
I0
ssS'GATHMANN WILLIAM D'
p231
(dp232
g3
I0
sg4
I0
sg5
I0
sg6
I00
sg7
I0
sg8
I0
sg10
I0
sg11
I0
sg12
I0
sg13
I-72419
sg14
I0
sg15
I0
sg16
I0
sg17
I0
sg18
I0
sg19
I0
sg20
I1945360
sg21
I0
sg22
I0
sg23
I264013
sg24
I0
sg25
I0
sg26
I0
sg27
I1753766
sg28
I0
ssS'HAEDICKE MARK E'
p233
(dp234
g3
I4009
sg4
I2157527
sg5
I76169
sg6
I00
sg7
I-934484
sg8
S'mark.haedicke@enron.com'
p235
sg10
I983346
sg11
F0.04489897730107259
sg12
F0.04050420168067227
sg13
I-329825
sg14
I1847
sg15
I0
sg16
I1941
sg17
I52382
sg18
I0
sg19
I1150000
sg20
I803094
sg21
I180
sg22
I61
sg23
I524169
sg24
I374125
sg25
I3859065
sg26
F0.03142709943328181
sg27
I608750
sg28
F297956.0
ssS'BOWEN JR RAYMOND M'
p236
(dp237
g3
I1858
sg4
I0
sg5
I65907
sg6
I01
sg7
I-833
sg8
S'raymond.bowen@enron.com'
p238
sg10
I974293
sg11
F0.07534983853606028
sg12
F0.08222811671087533
sg13
I0
sg14
I1593
sg15
I0
sg16
I27
sg17
I1621
sg18
I0
sg19
I1350000
sg20
I252055
sg21
I140
sg22
I15
sg23
I252055
sg24
I278601
sg25
I2669589
sg26
F0.5555555555555556
sg27
I0
sg28
F212694.0
ssS'GILLIS JOHN'
p239
(dp240
g3
I0
sg4
I0
sg5
I0
sg6
I00
sg7
I0
sg8
I0
sg10
I0
sg11
I0
sg12
I0
sg13
I0
sg14
I0
sg15
I0
sg16
I0
sg17
I0
sg18
I0
sg19
I0
sg20
I85641
sg21
I0
sg22
I0
sg23
I75838
sg24
I0
sg25
I0
sg26
I0
sg27
I9803
sg28
I0
ssS'FITZGERALD JAY L'
p241
(dp242
g3
I936
sg4
I0
sg5
I23870
sg6
I00
sg7
I0
sg8
S'jay.fitzgerald@enron.com'
p243
sg10
I556416
sg11
F0.0010683760683760685
sg12
F0.009453781512605041
sg13
I0
sg14
I723
sg15
I0
sg16
I16
sg17
I285414
sg18
I0
sg19
I350000
sg20
I1621236
sg21
I1
sg22
I8
sg23
I956775
sg24
I199157
sg25
I1414857
sg26
F0.5
sg27
I664461
sg28
F175287.0
ssS'MORAN MICHAEL P'
p244
(dp245
g3
I672
sg4
I0
sg5
I0
sg6
I00
sg7
I0
sg8
S'michael.moran@enron.com'
p246
sg10
I0
sg11
F0.0
sg12
F0.0
sg13
I0
sg14
I127
sg15
I0
sg16
I19
sg17
I0
sg18
I0
sg19
I0
sg20
I221141
sg21
I0
sg22
I0
sg23
I161602
sg24
I0
sg25
I0
sg26
F0.0
sg27
I59539
sg28
I0
ssS'REDMOND BRIAN L'
p247
(dp248
g3
I1671
sg4
I0
sg5
I14689
sg6
I00
sg7
I0
sg8
S'brian.redmond@enron.com'
p249
sg10
I0
sg11
F0.12208258527827648
sg12
F0.13372093023255813
sg13
I0
sg14
I1063
sg15
I0
sg16
I221
sg17
I0
sg18
I0
sg19
I0
sg20
I7890324
sg21
I204
sg22
I49
sg23
I381285
sg24
I96840
sg25
I111529
sg26
F0.22171945701357465
sg27
I7509039
sg28
F82151.0
ssS'BAZELIDES PHILIP J'
p250
(dp251
g3
I0
sg4
I684694
sg5
I0
sg6
I00
sg7
I0
sg8
I0
sg10
I93750
sg11
I0
sg12
I0
sg13
I0
sg14
I0
sg15
I0
sg16
I0
sg17
I874
sg18
I0
sg19
I0
sg20
I1599641
sg21
I0
sg22
I0
sg23
I0
sg24
I80818
sg25
I860136
sg26
I0
sg27
I1599641
sg28
I0
ssS'BELDEN TIMOTHY N'
p252
(dp253
g3
I7991
sg4
I2144013
sg5
I17355
sg6
I01
sg7
I-2334434
sg8
S'tim.belden@enron.com'
p254
sg10
I0
sg11
F0.028532098610937303
sg12
F0.03964601769911504
sg13
I0
sg14
I5521
sg15
I0
sg16
I484
sg17
I210698
sg18
I0
sg19
I5249999
sg20
I1110705
sg21
I228
sg22
I108
sg23
I157569
sg24
I213999
sg25
I5501630
sg26
F0.2231404958677686
sg27
I953136
sg28
F196644.0
ssS'DURAN WILLIAM D'
p255
(dp256
g3
I904
sg4
I0
sg5
I25785
sg6
I00
sg7
I0
sg8
S'w.duran@enron.com'
p257
sg10
I1105218
sg11
F0.1172566371681416
sg12
F0.11899563318777293
sg13
I0
sg14
I599
sg15
I0
sg16
I12
sg17
I1568
sg18
I0
sg19
I750000
sg20
I1640910
sg21
I106
sg22
I3
sg23
I189041
sg24
I210692
sg25
I2093263
sg26
F0.25
sg27
I1451869
sg28
F184907.0
ssS'THORN TERENCE H'
p258
(dp259
g3
I266
sg4
I16586
sg5
I46145
sg6
I00
sg7
I0
sg8
S'terence.thorn@enron.com'
p260
sg10
I200000
sg11
F0.0
sg12
F0.0
sg13
I0
sg14
I73
sg15
I0
sg16
I41
sg17
I426629
sg18
I0
sg19
I0
sg20
I4817796
sg21
I0
sg22
I0
sg23
I365320
sg24
I222093
sg25
I911453
sg26
F0.0
sg27
I4452476
sg28
F175948.0
ssS'FASTOW ANDREW S'
p261
(dp262
g3
I0
sg4
I0
sg5
I55921
sg6
I01
sg7
I-1386055
sg8
S'andrew.fastow@enron.com'
p263
sg10
I1736055
sg11
I0
sg12
I0
sg13
I0
sg14
I0
sg15
I0
sg16
I0
sg17
I277464
sg18
I0
sg19
I1300000
sg20
I1794412
sg21
I0
sg22
I0
sg23
I1794412
sg24
I440698
sg25
I2424083
sg26
I0
sg27
I0
sg28
F384777.0
ssS'FOY JOE'
p264
(dp265
g3
I57
sg4
I181755
sg5
I0
sg6
I00
sg7
I0
sg8
S'tracy.foy@enron.com'
p266
sg10
I0
sg11
F0.0
sg12
F0.0
sg13
I0
sg14
I2
sg15
I0
sg16
I13
sg17
I0
sg18
I0
sg19
I0
sg20
I343434
sg21
I0
sg22
I0
sg23
I0
sg24
I0
sg25
I181755
sg26
F0.0
sg27
I343434
sg28
I0
ssS'CALGER CHRISTOPHER F'
p267
(dp268
g3
I2598
sg4
I0
sg5
I35818
sg6
I01
sg7
I-262500
sg8
S'christopher.calger@enron.com'
p269
sg10
I375304
sg11
F0.07659738260200154
sg12
F0.08169219547775347
sg13
I0
sg14
I2188
sg15
I0
sg16
I144
sg17
I486
sg18
I0
sg19
I1250000
sg20
I126027
sg21
I199
sg22
I25
sg23
I126027
sg24
I240189
sg25
I1639297
sg26
F0.1736111111111111
sg27
I0
sg28
F204371.0
ssS'RICE KENNETH D'
p270
(dp271
g3
I905
sg4
I0
sg5
I46950
sg6
I01
sg7
I-3504386
sg8
S'ken.rice@enron.com'
p272
sg10
I1617011
sg11
F0.04640883977900553
sg12
F0.04983748645720477
sg13
I0
sg14
I864
sg15
I0
sg16
I18
sg17
I174839
sg18
I0
sg19
I1750000
sg20
I22542539
sg21
I42
sg22
I4
sg23
I2748364
sg24
I420636
sg25
I505050
sg26
F0.2222222222222222
sg27
I19794175
sg28
F373686.0
ssS'KAMINSKI WINCENTY J'
p273
(dp274
g3
I4607
sg4
I0
sg5
I83585
sg6
I00
sg7
I0
sg8
S'vince.kaminski@enron.com'
p275
sg10
I323466
sg11
F0.008899500759713479
sg12
F0.011172595520421607
sg13
I0
sg14
I583
sg15
I0
sg16
I14368
sg17
I4669
sg18
I0
sg19
I400000
sg20
I976037
sg21
I41
sg22
I171
sg23
I126027
sg24
I275101
sg25
I1086821
sg26
F0.011901447661469933
sg27
I850010
sg28
F191516.0
ssS'LOCKHART EUGENE E'
p276
(dp277
g3
I0
sg4
I0
sg5
I0
sg6
I00
sg7
I0
sg8
I0
sg10
I0
sg11
I0
sg12
I0
sg13
I0
sg14
I0
sg15
I0
sg16
I0
sg17
I0
sg18
I0
sg19
I0
sg20
I0
sg21
I0
sg22
I0
sg23
I0
sg24
I0
sg25
I0
sg26
I0
sg27
I0
sg28
I0
ssS'COX DAVID'
p278
(dp279
g3
I102
sg4
I0
sg5
I27861
sg6
I00
sg7
I-41250
sg8
S'chip.cox@enron.com'
p280
sg10
I0
sg11
F0.0
sg12
F0.02962962962962963
sg13
I0
sg14
I71
sg15
I0
sg16
I33
sg17
I494
sg18
I0
sg19
I800000
sg20
I495633
sg21
I0
sg22
I4
sg23
I378082
sg24
I314288
sg25
I1101393
sg26
F0.12121212121212122
sg27
I117551
sg28
F286427.0
ssS'OVERDYKE JR JERE C'
p281
(dp282
g3
I0
sg4
I0
sg5
I18834
sg6
I00
sg7
I0
sg8
S'jere.overdyke@enron.com'
p283
sg10
I135836
sg11
I0
sg12
I0
sg13
I0
sg14
I0
sg15
I0
sg16
I0
sg17
I176
sg18
I0
sg19
I0
sg20
I7307594
sg21
I0
sg22
I0
sg23
I2041016
sg24
I94941
sg25
I249787
sg26
I0
sg27
I5266578
sg28
F76107.0
ssS'PEREIRA PAULO V. FERRAZ'
p284
(dp285
g3
I0
sg4
I0
sg5
I27942
sg6
I00
sg7
I-101250
sg8
I0
sg10
I0
sg11
I0
sg12
I0
sg13
I0
sg14
I0
sg15
I0
sg16
I0
sg17
I0
sg18
I101250
sg19
I0
sg20
I0
sg21
I0
sg22
I0
sg23
I0
sg24
I0
sg25
I27942
sg26
I0
sg27
I0
sg28
I0
ssS'STABLER FRANK'
p286
(dp287
g3
I0
sg4
I0
sg5
I16514
sg6
I00
sg7
I0
sg8
S'frank.stabler@enron.com'
p288
sg10
I0
sg11
I0
sg12
I0
sg13
I0
sg14
I0
sg15
I0
sg16
I0
sg17
I356071
sg18
I0
sg19
I500000
sg20
I511734
sg21
I0
sg22
I0
sg23
I511734
sg24
I239502
sg25
I1112087
sg26
I0
sg27
I0
sg28
F222988.0
ssS'SKILLING JEFFREY K'
p289
(dp290
g3
I3627
sg4
I0
sg5
I29336
sg6
I01
sg7
I0
sg8
S'jeff.skilling@enron.com'
p291
sg10
I1920000
sg11
F0.0242624758753791
sg12
F0.03159303882195449
sg13
I0
sg14
I2042
sg15
I0
sg16
I108
sg17
I22122
sg18
I0
sg19
I5600000
sg20
I26093672
sg21
I88
sg22
I30
sg23
I6843672
sg24
I1111258
sg25
I8682716
sg26
F0.2777777777777778
sg27
I19250000
sg28
F1081922.0
ssS'BLAKE JR. NORMAN P'
p292
(dp293
g3
I0
sg4
I0
sg5
I1279
sg6
I00
sg7
I-113784
sg8
I0
sg10
I0
sg11
I0
sg12
I0
sg13
I0
sg14
I0
sg15
I0
sg16
I0
sg17
I0
sg18
I113784
sg19
I0
sg20
I0
sg21
I0
sg22
I0
sg23
I0
sg24
I0
sg25
I1279
sg26
I0
sg27
I0
sg28
I0
ssS'SHERRICK JEFFREY B'
p294
(dp295
g3
I613
sg4
I0
sg5
I0
sg6
I00
sg7
I0
sg8
S'jeffrey.sherrick@enron.com'
p296
sg10
I0
sg11
F0.0636215334420881
sg12
F0.08934169278996865
sg13
I0
sg14
I583
sg15
I0
sg16
I25
sg17
I0
sg18
I0
sg19
I0
sg20
I1832468
sg21
I39
sg22
I18
sg23
I405999
sg24
I0
sg25
I0
sg26
F0.72
sg27
I1426469
sg28
I0
ssS'PRENTICE JAMES'
p297
(dp298
g3
I0
sg4
I564348
sg5
I0
sg6
I00
sg7
I0
sg8
S'james.prentice@enron.com'
p299
sg10
I0
sg11
I0
sg12
I0
sg13
I0
sg14
I0
sg15
I0
sg16
I0
sg17
I0
sg18
I0
sg19
I0
sg20
I1095040
sg21
I0
sg22
I0
sg23
I208809
sg24
I0
sg25
I564348
sg26
I0
sg27
I886231
sg28
I0
ssS'GRAY RODNEY'
p300
(dp301
g3
I0
sg4
I93585
sg5
I0
sg6
I00
sg7
I0
sg8
I0
sg10
I365625
sg11
I0
sg12
I0
sg13
I0
sg14
I0
sg15
I0
sg16
I0
sg17
I680833
sg18
I0
sg19
I0
sg20
I0
sg21
I0
sg22
I0
sg23
I0
sg24
I6615
sg25
I1146658
sg26
I0
sg27
I0
sg28
I0
ssS'PICKERING MARK R'
p302
(dp303
g3
I898
sg4
I0
sg5
I31653
sg6
I00
sg7
I0
sg8
S'mark.pickering@enron.com'
p304
sg10
I0
sg11
F0.0077951002227171495
sg12
F0.007253886010362694
sg13
I0
sg14
I728
sg15
I400000
sg16
I67
sg17
I0
sg18
I0
sg19
I300000
sg20
I28798
sg21
I7
sg22
I0
sg23
I0
sg24
I655037
sg25
I1386690
sg26
F0.0
sg27
I28798
sg28
F623384.0
ssS'NOLES JAMES L'
p305
(dp306
g3
I0
sg4
I774401
sg5
I0
sg6
I00
sg7
I0
sg8
I0
sg10
I0
sg11
I0
sg12
I0
sg13
I-94556
sg14
I0
sg15
I0
sg16
I0
sg17
I0
sg18
I0
sg19
I0
sg20
I368705
sg21
I0
sg22
I0
sg23
I463261
sg24
I0
sg25
I774401
sg26
I0
sg27
I0
sg28
I0
ssS'KEAN STEVEN J'
p307
(dp308
g3
I12754
sg4
I0
sg5
I41953
sg6
I00
sg7
I0
sg8
S'steven.kean@enron.com'
p309
sg10
I300000
sg11
F0.010976948408342482
sg12
F0.02700763593501768
sg13
I0
sg14
I3639
sg15
I0
sg16
I6759
sg17
I1231
sg18
I0
sg19
I1000000
sg20
I6153642
sg21
I140
sg22
I387
sg23
I4131594
sg24
I404338
sg25
I1747522
sg26
F0.05725699067909454
sg27
I2022048
sg28
F362385.0
ssS'FOWLER PEGGY'
p310
(dp311
g3
I517
sg4
I0
sg5
I0
sg6
I00
sg7
I0
sg8
S'kulvinder.fowler@enron.com'
p312
sg10
I0
sg11
F0.0
sg12
F0.0
sg13
I0
sg14
I10
sg15
I0
sg16
I36
sg17
I0
sg18
I0
sg19
I0
sg20
I1884748
sg21
I0
sg22
I0
sg23
I560170
sg24
I0
sg25
I0
sg26
F0.0
sg27
I1324578
sg28
I0
ssS'WASAFF GEORGE'
p313
(dp314
g3
I400
sg4
I831299
sg5
I0
sg6
I00
sg7
I-583325
sg8
S'george.wasaff@enron.com'
p315
sg10
I200000
sg11
F0.055
sg12
F0.06744186046511629
sg13
I0
sg14
I337
sg15
I0
sg16
I30
sg17
I1425
sg18
I0
sg19
I325000
sg20
I2056427
sg21
I22
sg22
I7
sg23
I388167
sg24
I259996
sg25
I1034395
sg26
F0.23333333333333334
sg27
I1668260
sg28
I0
ssS'WHITE JR THOMAS E'
p316
(dp317
g3
I0
sg4
I0
sg5
I81353
sg6
I00
sg7
I0
sg8
S'thomas.white@enron.com'
p318
sg10
I0
sg11
I0
sg12
I0
sg13
I0
sg14
I0
sg15
I0
sg16
I0
sg17
I1085463
sg18
I0
sg19
I450000
sg20
I15144123
sg21
I0
sg22
I0
sg23
I13847074
sg24
I317543
sg25
I1934359
sg26
I0
sg27
I1297049
sg28
F236190.0
ssS'CHRISTODOULOU DIOMEDES'
p319
(dp320
g3
I0
sg4
I0
sg5
I0
sg6
I00
sg7
I0
sg8
S'diomedes.christodoulou@enron.com'
p321
sg10
I0
sg11
I0
sg12
I0
sg13
I0
sg14
I0
sg15
I0
sg16
I0
sg17
I0
sg18
I0
sg19
I0
sg20
I6077885
sg21
I0
sg22
I0
sg23
I950730
sg24
I0
sg25
I0
sg26
I0
sg27
I5127155
sg28
I0
ssS'ALLEN PHILLIP K'
p322
(dp323
g3
I2902
sg4
I2869717
sg5
I13868
sg6
I00
sg7
I-3081055
sg8
S'phillip.allen@enron.com'
p324
sg10
I304805
sg11
F0.016195727084769126
sg12
F0.0219737100255052
sg13
I-126027
sg14
I1407
sg15
I0
sg16
I2195
sg17
I152
sg18
I0
sg19
I4175000
sg20
I1729541
sg21
I47
sg22
I65
sg23
I126027
sg24
I201955
sg25
I4484442
sg26
F0.029612756264236904
sg27
I1729541
sg28
F188087.0
ssS'SHARP VICTORIA T'
p325
(dp326
g3
I3136
sg4
I187469
sg5
I116337
sg6
I00
sg7
I0
sg8
S'vicki.sharp@enron.com'
p327
sg10
I422158
sg11
F0.007653061224489796
sg12
F0.009168704156479218
sg13
I0
sg14
I2477
sg15
I0
sg16
I136
sg17
I2401
sg18
I0
sg19
I600000
sg20
I494136
sg21
I24
sg22
I6
sg23
I213063
sg24
I248146
sg25
I1576511
sg26
F0.04411764705882353
sg27
I281073
sg28
F131809.0
ssS'JAEDICKE ROBERT'
p328
(dp329
g3
I0
sg4
I0
sg5
I0
sg6
I00
sg7
I-25000
sg8
I0
sg10
I0
sg11
I0
sg12
I0
sg13
I-44093
sg14
I0
sg15
I0
sg16
I0
sg17
I0
sg18
I108750
sg19
I0
sg20
I431750
sg21
I0
sg22
I0
sg23
I44093
sg24
I0
sg25
I83750
sg26
I0
sg27
I431750
sg28
I0
ssS'WINOKUR JR. HERBERT S'
p330
(dp331
g3
I0
sg4
I0
sg5
I1413
sg6
I00
sg7
I-25000
sg8
I0
sg10
I0
sg11
I0
sg12
I0
sg13
I0
sg14
I0
sg15
I0
sg16
I0
sg17
I0
sg18
I108579
sg19
I0
sg20
I0
sg21
I0
sg22
I0
sg23
I0
sg24
I0
sg25
I84992
sg26
I0
sg27
I0
sg28
I0
ssS'BROWN MICHAEL'
p332
(dp333
g3
I1486
sg4
I0
sg5
I49288
sg6
I00
sg7
I0
sg8
S'michael.brown@enron.com'
p334
sg10
I0
sg11
F0.008748317631224764
sg12
F0.0091683038637852
sg13
I0
sg14
I761
sg15
I0
sg16
I41
sg17
I0
sg18
I0
sg19
I0
sg20
I0
sg21
I13
sg22
I1
sg23
I0
sg24
I0
sg25
I49288
sg26
F0.024390243902439025
sg27
I0
sg28
I0
ssS'BADUM JAMES P'
p335
(dp336
g3
I0
sg4
I178980
sg5
I3486
sg6
I00
sg7
I0
sg8
I0
sg10
I0
sg11
I0
sg12
I0
sg13
I0
sg14
I0
sg15
I0
sg16
I0
sg17
I0
sg18
I0
sg19
I0
sg20
I257817
sg21
I0
sg22
I0
sg23
I0
sg24
I0
sg25
I182466
sg26
I0
sg27
I257817
sg28
I0
ssS'HUGHES JAMES A'
p337
(dp338
g3
I719
sg4
I0
sg5
I0
sg6
I00
sg7
I0
sg8
S'james.hughes@enron.com'
p339
sg10
I0
sg11
F0.048678720445062586
sg12
F0.05312084993359894
sg13
I0
sg14
I589
sg15
I0
sg16
I34
sg17
I0
sg18
I0
sg19
I0
sg20
I1118394
sg21
I35
sg22
I5
sg23
I363428
sg24
I0
sg25
I0
sg26
F0.14705882352941177
sg27
I754966
sg28
I0
ssS'REYNOLDS LAWRENCE'
p340
(dp341
g3
I0
sg4
I51365
sg5
I8409
sg6
I00
sg7
I-200000
sg8
I0
sg10
I156250
sg11
I0
sg12
I0
sg13
I-140264
sg14
I0
sg15
I0
sg16
I0
sg17
I202052
sg18
I0
sg19
I100000
sg20
I4221891
sg21
I0
sg22
I0
sg23
I201483
sg24
I76399
sg25
I394475
sg26
I0
sg27
I4160672
sg28
F67990.0
ssS'DIMICHELE RICHARD G'
p342
(dp343
g3
I0
sg4
I0
sg5
I35812
sg6
I00
sg7
I0
sg8
S'richard.dimichele@enron.com'
p344
sg10
I694862
sg11
I0
sg12
I0
sg13
I0
sg14
I0
sg15
I0
sg16
I0
sg17
I374689
sg18
I0
sg19
I1000000
sg20
I8317782
sg21
I0
sg22
I0
sg23
I126027
sg24
I262788
sg25
I2368151
sg26
I0
sg27
I8191755
sg28
F226976.0
ssS'BHATNAGAR SANJAY'
p345
(dp346
g3
I523
sg4
I0
sg5
I0
sg6
I00
sg7
I0
sg8
S'sanjay.bhatnagar@enron.com'
p347
sg10
I0
sg11
F0.0
sg12
F0.0018115942028985507
sg13
I15456290
sg14
I463
sg15
I0
sg16
I29
sg17
I137864
sg18
I137864
sg19
I0
sS'total_stock_value'
p348
I0
sg21
I0
sg22
I1
sg23
I-2604490
sg24
I0
sg25
I15456290
sg26
F0.034482758620689655
sg27
I2604490
sg28
I0
ssS'CARTER REBECCA C'
p349
(dp350
g3
I312
sg4
I0
sg5
I0
sg6
I00
sg7
I-159792
sg8
S'rebecca.carter@enron.com'
p351
sg10
I75000
sg11
F0.09294871794871795
sg12
F0.11009174311926606
sg13
I-307301
sg14
I196
sg15
I0
sg16
I15
sg17
I540
sg18
I0
sg19
I300000
sg20
I0
sg21
I29
sg22
I7
sg23
I307301
sg24
I261809
sg25
I477557
sg26
F0.4666666666666667
sg27
I0
sg28
I0
ssS'BUCHANAN HAROLD G'
p352
(dp353
g3
I1088
sg4
I0
sg5
I600
sg6
I00
sg7
I0
sg8
S'john.buchanan@enron.com'
p354
sg10
I304805
sg11
F0.0
sg12
F0.0
sg13
I0
sg14
I23
sg15
I0
sg16
I125
sg17
I1215
sg18
I0
sg19
I500000
sg20
I1014505
sg21
I0
sg22
I0
sg23
I189041
sg24
I248017
sg25
I1054637
sg26
F0.0
sg27
I825464
sg28
F247417.0
ssS'YEAP SOON'
p355
(dp356
g3
I0
sg4
I0
sg5
I55097
sg6
I00
sg7
I0
sg8
I0
sg10
I0
sg11
I0
sg12
I0
sg13
I0
sg14
I0
sg15
I0
sg16
I0
sg17
I0
sg18
I0
sg19
I0
sg20
I192758
sg21
I0
sg22
I0
sg23
I0
sg24
I0
sg25
I55097
sg26
I0
sg27
I192758
sg28
I0
ssS'MURRAY JULIA H'
p357
(dp358
g3
I2192
sg4
I0
sg5
I57580
sg6
I00
sg7
I0
sg8
S'julia.murray@enron.com'
p359
sg10
I125000
sg11
F0.005018248175182482
sg12
F0.00581135449262405
sg13
I0
sg14
I395
sg15
I0
sg16
I45
sg17
I330
sg18
I0
sg19
I400000
sg20
I597461
sg21
I11
sg22
I2
sg23
I196983
sg24
I229284
sg25
I812194
sg26
F0.044444444444444446
sg27
I400478
sg28
F171704.0
ssS'GARLAND C KEVIN'
p360
(dp361
g3
I209
sg4
I0
sg5
I48405
sg6
I00
sg7
I0
sg8
S'kevin.garland@enron.com'
p362
sg10
I375304
sg11
F0.04784688995215311
sg12
F0.14624505928853754
sg13
I0
sg14
I178
sg15
I0
sg16
I44
sg17
I60814
sg18
I0
sg19
I850000
sg20
I896153
sg21
I10
sg22
I27
sg23
I259907
sg24
I231946
sg25
I1566469
sg26
F0.6136363636363636
sg27
I636246
sg28
F183541.0
ssS'DODSON KEITH'
p363
(dp364
g3
I176
sg4
I0
sg5
I28164
sg6
I00
sg7
I0
sg8
S'keith.dodson@enron.com'
p365
sg10
I0
sg11
F0.056818181818181816
sg12
F0.06842105263157895
sg13
I0
sg14
I114
sg15
I0
sg16
I14
sg17
I774
sg18
I0
sg19
I70000
sg20
I0
sg21
I10
sg22
I3
sg23
I0
sg24
I221003
sg25
I319941
sg26
F0.21428571428571427
sg27
I0
sg28
F192839.0
ssS'YEAGER F SCOTT'
p366
(dp367
g3
I0
sg4
I0
sg5
I53947
sg6
I01
sg7
I0
sg8
S'scott.yeager@enron.com'
p368
sg10
I0
sg11
I0
sg12
I0
sg13
I0
sg14
I0
sg15
I0
sg16
I0
sg17
I147950
sg18
I0
sg19
I0
sg20
I11884758
sg21
I0
sg22
I0
sg23
I3576206
sg24
I158403
sg25
I360300
sg26
I0
sg27
I8308552
sg28
F104456.0
ssS'HIRKO JOSEPH'
p369
(dp370
g3
I0
sg4
I10259
sg5
I77978
sg6
I01
sg7
I0
sg8
S'joe.hirko@enron.com'
p371
sg10
I0
sg11
I0
sg12
I0
sg13
I0
sg14
I0
sg15
I0
sg16
I0
sg17
I2856
sg18
I0
sg19
I0
sg20
I30766064
sg21
I0
sg22
I0
sg23
I0
sg24
I0
sg25
I91093
sg26
I0
sg27
I30766064
sg28
I0
ssS'DIETRICH JANET R'
p372
(dp373
g3
I2572
sg4
I0
sg5
I3475
sg6
I00
sg7
I0
sg8
S'janet.dietrich@enron.com'
p374
sg10
I556416
sg11
F0.11858475894245724
sg12
F0.12106261859582543
sg13
I0
sg14
I1902
sg15
I0
sg16
I63
sg17
I473
sg18
I0
sg19
I600000
sg20
I1865087
sg21
I305
sg22
I14
sg23
I315068
sg24
I250100
sg25
I1410464
sg26
F0.2222222222222222
sg27
I1550019
sg28
F246625.0
ssS'DERRICK JR. JAMES V'
p375
(dp376
g3
I2181
sg4
I0
sg5
I51124
sg6
I00
sg7
I-1284000
sg8
S'james.derrick@enron.com'
p377
sg10
I484000
sg11
F0.029344337459880788
sg12
F0.027184466019417475
sg13
I-1787380
sg14
I1401
sg15
I0
sg16
I909
sg17
I7482
sg18
I0
sg19
I800000
sg20
I8831913
sg21
I64
sg22
I20
sg23
I1787380
sg24
I492375
sg25
I550981
sg26
F0.022002200220022004
sg27
I8831913
sg28
F441251.0
ssS'FREVERT MARK A'
p378
(dp379
g3
I3275
sg4
I6426990
sg5
I86987
sg6
I00
sg7
I-3367011
sg8
S'mark.frevert@enron.com'
p380
sg10
I1617011
sg11
F0.07389312977099237
sg12
F0.07524271844660194
sg13
I0
sg14
I2979
sg15
I2000000
sg16
I21
sg17
I7427621
sg18
I0
sg19
I2000000
sg20
I14622185
sg21
I242
sg22
I6
sg23
I4188667
sg24
I1060932
sg25
I17252530
sg26
F0.2857142857142857
sg27
I10433518
sg28
F973945.0
ssS'PAI LOU L'
p381
(dp382
g3
I0
sg4
I0
sg5
I32047
sg6
I00
sg7
I0
sg8
S'lou.pai@enron.com'
p383
sg10
I0
sg11
I0
sg12
I0
sg13
I0
sg14
I0
sg15
I0
sg16
I0
sg17
I1829457
sg18
I0
sg19
I1000000
sg20
I23817930
sg21
I0
sg22
I0
sg23
I8453763
sg24
I261879
sg25
I3123383
sg26
I0
sg27
I15364167
sg28
F229832.0
ssS'BAY FRANKLIN R'
p384
(dp385
g3
I0
sg4
I260455
sg5
I129142
sg6
I00
sg7
I-201641
sg8
S'frank.bay@enron.com'
p386
sg10
I0
sg11
I0
sg12
I0
sg13
I-82782
sg14
I0
sg15
I0
sg16
I0
sg17
I69
sg18
I0
sg19
I400000
sg20
I63014
sg21
I0
sg22
I0
sg23
I145796
sg24
I239671
sg25
I827696
sg26
I0
sg27
I0
sg28
F110529.0
ssS'HAYSLETT RODERICK J'
p387
(dp388
g3
I2649
sg4
I0
sg5
I0
sg6
I00
sg7
I0
sg8
S'rod.hayslett@enron.com'
p389
sg10
I0
sg11
F0.01321253303133258
sg12
F0.019676549865229112
sg13
I0
sg14
I571
sg15
I0
sg16
I1061
sg17
I0
sg18
I0
sg19
I0
sg20
I346663
sg21
I35
sg22
I38
sg23
I346663
sg24
I0
sg25
I0
sg26
F0.03581526861451461
sg27
I0
sg28
I0
ssS'FUGH JOHN L'
p390
(dp391
g3
I0
sg4
I50591
sg5
I0
sg6
I00
sg7
I0
sg8
I0
sg10
I0
sg11
I0
sg12
I0
sg13
I0
sg14
I0
sg15
I0
sg16
I0
sg17
I0
sg18
I0
sg19
I0
sg20
I176378
sg21
I0
sg22
I0
sg23
I0
sg24
I0
sg25
I50591
sg26
I0
sg27
I176378
sg28
I0
ssS'FALLON JAMES B'
p392
(dp393
g3
I1755
sg4
I0
sg5
I95924
sg6
I00
sg7
I0
sg8
S'jim.fallon@enron.com'
p394
sg10
I374347
sg11
F0.023931623931623933
sg12
F0.04316939890710383
sg13
I0
sg14
I1604
sg15
I0
sg16
I75
sg17
I401481
sg18
I0
sg19
I2500000
sg20
I2332399
sg21
I42
sg22
I37
sg23
I1392142
sg24
I304588
sg25
I3676340
sg26
F0.49333333333333335
sg27
I940257
sg28
F208664.0
ssS'KOENIG MARK E'
p395
(dp396
g3
I2374
sg4
I0
sg5
I127017
sg6
I01
sg7
I0
sg8
S'mark.koenig@enron.com'
p397
sg10
I300000
sg11
F0.02232518955349621
sg12
F0.02792607802874743
sg13
I0
sg14
I2271
sg15
I0
sg16
I61
sg17
I150458
sg18
I0
sg19
I700000
sg20
I1920055
sg21
I53
sg22
I15
sg23
I1248318
sg24
I309946
sg25
I1587421
sg26
F0.2459016393442623
sg27
I671737
sg28
F182929.0
ssS'SAVAGE FRANK'
p398
(dp399
g3
I0
sg4
I0
sg5
I0
sg6
I00
sg7
I-121284
sg8
I0
sg10
I0
sg11
I0
sg12
I0
sg13
I0
sg14
I0
sg15
I0
sg16
I0
sg17
I0
sg18
I125034
sg19
I0
sg20
I0
sg21
I0
sg22
I0
sg23
I0
sg24
I0
sg25
I3750
sg26
I0
sg27
I0
sg28
I0
ssS'IZZO LAWRENCE L'
p400
(dp401
g3
I496
sg4
I0
sg5
I28093
sg6
I00
sg7
I0
sg8
S'larry.izzo@enron.com'
p402
sg10
I312500
sg11
F0.056451612903225805
sg12
F0.06407766990291262
sg13
I0
sg14
I437
sg15
I0
sg16
I19
sg17
I1553729
sg18
I0
sg19
I0
sg20
I5819980
sg21
I28
sg22
I5
sg23
I3654808
sg24
I85274
sg25
I1979596
sg26
F0.2631578947368421
sg27
I2165172
sg28
F57181.0
ssS'TILNEY ELIZABETH A'
p403
(dp404
g3
I460
sg4
I0
sg5
I0
sg6
I00
sg7
I-575000
sg8
S'elizabeth.tilney@enron.com'
p405
sg10
I275000
sg11
F0.021739130434782608
sg12
F0.04384133611691023
sg13
I0
sg14
I379
sg15
I0
sg16
I19
sg17
I152055
sg18
I0
sg19
I300000
sg20
I1168042
sg21
I10
sg22
I11
sg23
I576792
sg24
I247338
sg25
I399393
sg26
F0.5789473684210527
sg27
I591250
sg28
I0
ssS'MARTIN AMANDA K'
p406
(dp407
g3
I1522
sg4
I85430
sg5
I8211
sg6
I00
sg7
I0
sg8
S'a..martin@enron.com'
p408
sg10
I5145434
sg11
F0.005256241787122208
sg12
F0.0045662100456621
sg13
I0
sg14
I477
sg15
I0
sg16
I230
sg17
I2818454
sg18
I0
sg19
I0
sg20
I2070306
sg21
I8
sg22
I0
sg23
I0
sg24
I349487
sg25
I8407016
sg26
F0.0
sg27
I2070306
sg28
F341276.0
ssS'BUY RICHARD B'
p409
(dp410
g3
I3523
sg4
I649584
sg5
I0
sg6
I00
sg7
I-694862
sg8
S'rick.buy@enron.com'
p411
sg10
I769862
sg11
F0.04428044280442804
sg12
F0.04960664335664336
sg13
I0
sg14
I2333
sg15
I0
sg16
I1053
sg17
I400572
sg18
I0
sg19
I900000
sg20
I3444470
sg21
I156
sg22
I71
sg23
I901657
sg24
I330546
sg25
I2355702
sg26
F0.06742640075973409
sg27
I2542813
sg28
I0
ssS'GRAMM WENDY L'
p412
(dp413
g3
I0
sg4
I0
sg5
I0
sg6
I00
sg7
I0
sg8
I0
sg10
I0
sg11
I0
sg12
I0
sg13
I0
sg14
I0
sg15
I0
sg16
I0
sg17
I0
sg18
I119292
sg19
I0
sg20
I0
sg21
I0
sg22
I0
sg23
I0
sg24
I0
sg25
I119292
sg26
I0
sg27
I0
sg28
I0
ssS'CAUSEY RICHARD A'
p414
(dp415
g3
I1892
sg4
I0
sg5
I30674
sg6
I01
sg7
I-235000
sg8
S'richard.causey@enron.com'
p416
sg10
I350000
sg11
F0.0306553911205074
sg12
F0.03606388459556929
sg13
I0
sg14
I1585
sg15
I0
sg16
I49
sg17
I307895
sg18
I0
sg19
I1000000
sg20
I2502063
sg21
I58
sg22
I12
sg23
I2502063
sg24
I415189
sg25
I1868758
sg26
F0.24489795918367346
sg27
I0
sg28
F384515.0
ssS'TAYLOR MITCHELL S'
p417
(dp418
g3
I533
sg4
I227449
sg5
I0
sg6
I00
sg7
I0
sg8
S'mitchell.taylor@enron.com'
p419
sg10
I0
sg11
F0.0
sg12
F0.0
sg13
I0
sg14
I300
sg15
I0
sg16
I29
sg17
I0
sg18
I0
sg19
I600000
sg20
I3745048
sg21
I0
sg22
I0
sg23
I563798
sg24
I265214
sg25
I1092663
sg26
F0.0
sg27
I3181250
sg28
I0
ssS'DONAHUE JR JEFFREY M'
p420
(dp421
g3
I865
sg4
I0
sg5
I96268
sg6
I00
sg7
I-300000
sg8
S'jeff.donahue@enron.com'
p422
sg10
I0
sg11
F0.21734104046242775
sg12
F0.22435174746335965
sg13
I0
sg14
I772
sg15
I0
sg16
I22
sg17
I891
sg18
I0
sg19
I800000
sg20
I1080988
sg21
I188
sg22
I11
sg23
I315068
sg24
I278601
sg25
I875760
sg26
F0.5
sg27
I765920
sg28
F182333.0
ssS'GLISAN JR BEN F'
p423
(dp424
g3
I873
sg4
I0
sg5
I125978
sg6
I01
sg7
I0
sg8
S'ben.glisan@enron.com'
p425
sg10
I71023
sg11
F0.05956471935853379
sg12
F0.06524184476940383
sg13
I0
sg14
I874
sg15
I0
sg16
I16
sg17
I200308
sg18
I0
sg19
I600000
sg20
I778546
sg21
I52
sg22
I6
sg23
I393818
sg24
I274975
sg25
I1272284
sg26
F0.375
sg27
I384728
sg28
F148997.0
ss.