(lp0
S'poi'
p1
aS'exercised_stock_options'
p2
aS'total_stock_value'
p3
aS'savings'
p4
aS'bonus'
p5
aS'salary'
p6
aS'fraction_to_poi'
p7
aS'deferred_income'
p8
aS'long_term_incentive'
p9
aS'restricted_stock'
p10
aS'total_payments'
p11
a.